; Function Attrs: mustprogress uwtable
define void @_ZN2cv8freetype13FreeType2Impl12loadFontDataEPcmi(ptr noundef nonnull align 8 dereferenceable(88) %0, ptr noundef %1, i64 noundef %2, i32 noundef %3) unnamed_addr #3 align 2 personality ptr @__gxx_personality_v0 {
  %5 = alloca %"class.std::__cxx11::basic_string", align 8
  %6 = alloca %"class.std::allocator", align 1
  %7 = alloca %struct.FT_Open_Args_, align 8
  %.not = icmp eq ptr %1, null
  br i1 %.not, label %8, label %18

8:                                                ; preds = %4
  call void @llvm.lifetime.start.p0(i64 32, ptr nonnull %5) #20
  call void @llvm.lifetime.start.p0(i64 1, ptr nonnull %6) #20
  call void @_ZNSt7__cxx1112basic_stringIcSt11char_traitsIcESaIcEEC2EPKcRKS3_(ptr noundef nonnull align 8 dereferenceable(32) %5, ptr noundef nonnull @.str.3, ptr noundef nonnull align 1 dereferenceable(1) %6)
  invoke void @_ZN2cv5errorEiRKNSt7__cxx1112basic_stringIcSt11char_traitsIcESaIcEEEPKcS9_i(i32 noundef -215, ptr noundef nonnull align 8 dereferenceable(32) %5, ptr noundef nonnull @__func__._ZN2cv8freetype13FreeType2Impl12loadFontDataEPcmi, ptr noundef nonnull @.str.1, i32 noundef 203) #21
          to label %9 unwind label %10

9:                                                ; preds = %8
  unreachable

10:                                               ; preds = %8
  %11 = landingpad { ptr, i32 }
          cleanup
  %12 = load ptr, ptr %5, align 8, !tbaa !94
  %13 = getelementptr inbounds nuw i8, ptr %5, i64 16
  %14 = icmp eq ptr %12, %13
  br i1 %14, label %_ZNKSt7__cxx1112basic_stringIcSt11char_traitsIcESaIcEE11_M_is_localEv.exit.thread.i.i, label %_ZNKSt7__cxx1112basic_stringIcSt11char_traitsIcESaIcEE11_M_is_localEv.exit.i.i

_ZNKSt7__cxx1112basic_stringIcSt11char_traitsIcESaIcEE11_M_is_localEv.exit.thread.i.i: ; preds = %10
  %15 = getelementptr inbounds nuw i8, ptr %5, i64 8
  %16 = load i64, ptr %15, align 8, !tbaa !98
  %17 = icmp ult i64 %16, 16
  call void @llvm.assume(i1 %17)
  br label %_ZNSt7__cxx1112basic_stringIcSt11char_traitsIcESaIcEED2Ev.exit

_ZNKSt7__cxx1112basic_stringIcSt11char_traitsIcESaIcEE11_M_is_localEv.exit.i.i: ; preds = %10
  call void @_ZdlPv(ptr noundef %12) #23
  br label %_ZNSt7__cxx1112basic_stringIcSt11char_traitsIcESaIcEED2Ev.exit

_ZNSt7__cxx1112basic_stringIcSt11char_traitsIcESaIcEED2Ev.exit: ; preds = %_ZNKSt7__cxx1112basic_stringIcSt11char_traitsIcESaIcEE11_M_is_localEv.exit.i.i, %_ZNKSt7__cxx1112basic_stringIcSt11char_traitsIcESaIcEE11_M_is_localEv.exit.thread.i.i
  call void @llvm.lifetime.end.p0(i64 1, ptr nonnull %6) #20
  call void @llvm.lifetime.end.p0(i64 32, ptr nonnull %5) #20
  resume { ptr, i32 } %11

18:                                               ; preds = %4
  call void @llvm.lifetime.start.p0(i64 64, ptr nonnull %7) #20
  store i32 1, ptr %7, align 8, !tbaa !88
  %19 = getelementptr inbounds nuw i8, ptr %7, i64 8
  store ptr %1, ptr %19, align 8, !tbaa !99
  %20 = getelementptr inbounds nuw i8, ptr %7, i64 16
  store i64 %2, ptr %20, align 8, !tbaa !100
  %21 = getelementptr inbounds nuw i8, ptr %7, i64 24
  %22 = getelementptr inbounds nuw i8, ptr %7, i64 56
  store ptr null, ptr %22, align 8, !tbaa !101
  call void @llvm.memset.p0.i64(ptr noundef nonnull align 8 dereferenceable(28) %21, i8 0, i64 28, i1 false)
  call void @_ZN2cv8freetype13FreeType2Impl12loadFontDataER13FT_Open_Args_i(ptr noundef nonnull align 8 dereferenceable(88) %0, ptr noundef nonnull align 8 dereferenceable(64) %7, i32 noundef %3)
  call void @llvm.lifetime.end.p0(i64 64, ptr nonnull %7) #20
  ret void
}